target datalayout = "e-m:e-p270:32:32-p271:32:32-p272:64:64-i64:64-i128:128-f80:128-n8:16:32:64-S128"
target triple = "x86_64-pc-linux-gnu"

%struct.nameData = type { [64 x i8] }
%struct.RelationData = type { %struct.RelFileLocator, ptr, i32, i32, i8, i8, i8, i8, i8, i32, i32, i32, i32, ptr, ptr, i32, %struct.LockInfoData, ptr, ptr, ptr, ptr, ptr, i8, ptr, ptr, ptr, ptr, ptr, ptr, i32, ptr, i8, ptr, ptr, i32, i8, i32, ptr, i8, ptr, ptr, ptr, ptr, ptr, ptr, ptr, i32, ptr, ptr, ptr, ptr, ptr, ptr, ptr, ptr, ptr, ptr, ptr, ptr, ptr, ptr, ptr, ptr, ptr, ptr, ptr, i32, i8, ptr }
%struct.RelFileLocator = type { i32, i32, i32 }
%struct.LockInfoData = type { %struct.LockRelId }
%struct.LockRelId = type { i32, i32 }
%struct.FormData_pg_class = type { i32, %struct.nameData, i32, i32, i32, i32, i32, i32, i32, i32, float, i32, i32, i8, i8, i8, i8, i16, i16, i8, i8, i8, i8, i8, i8, i8, i8, i32, i32, i32 }
%struct.ItemPointerData = type { %struct.BlockIdData, i16 }
%struct.BlockIdData = type { i16, i16 }
%struct.HeapTupleData = type { i32, %struct.ItemPointerData, i32, ptr }
%struct.HeapTupleHeaderData = type { %union.anon.0, %struct.ItemPointerData, i16, i16, i8, [0 x i8] }
%union.anon.0 = type { %struct.HeapTupleFields }
%struct.HeapTupleFields = type { i32, i32, %union.anon.1 }
%union.anon.1 = type { i32 }
%struct.PartitionBoundSpec = type { i32, i8, i8, i32, i32, ptr, ptr, ptr, i32 }

@.str.1 = private unnamed_addr constant [7 x i8] c"heap.c\00", align 1
@.str.21 = private unnamed_addr constant [36 x i8] c"cache lookup failed for relation %u\00", align 1
@__func__.StorePartitionBound = private unnamed_addr constant [20 x i8] c"StorePartitionBound\00", align 1

; Function Attrs: inlinehint nounwind uwtable
define internal ptr @GETSTRUCT(ptr noundef %0) #5 {
  %2 = alloca ptr, align 8
  store ptr %0, ptr %2, align 8
  %3 = load ptr, ptr %2, align 8
  %4 = getelementptr inbounds nuw %struct.HeapTupleData, ptr %3, i32 0, i32 3
  %5 = load ptr, ptr %4, align 8
  %6 = load ptr, ptr %2, align 8
  %7 = getelementptr inbounds nuw %struct.HeapTupleData, ptr %6, i32 0, i32 3
  %8 = load ptr, ptr %7, align 8
  %9 = getelementptr inbounds nuw %struct.HeapTupleHeaderData, ptr %8, i32 0, i32 4
  %10 = load i8, ptr %9, align 2
  %11 = zext i8 %10 to i32
  %12 = sext i32 %11 to i64
  %13 = getelementptr inbounds i8, ptr %5, i64 %12
  ret ptr %13
}

; Function Attrs: inlinehint nounwind uwtable
define internal i64 @PointerGetDatum(ptr noundef %0) #5 {
  %2 = alloca ptr, align 8
  store ptr %0, ptr %2, align 8
  %3 = load ptr, ptr %2, align 8
  %4 = ptrtoint ptr %3 to i64
  ret i64 %4
}

; Function Attrs: inlinehint nounwind uwtable
define internal i64 @ObjectIdGetDatum(i32 noundef %0) #5 {
  %2 = alloca i32, align 4
  store i32 %0, ptr %2, align 4
  %3 = load i32, ptr %2, align 4
  %4 = zext i32 %3 to i64
  ret i64 %4
}

; Function Attrs: nounwind uwtable
define dso_local void @StorePartitionBound(ptr noundef %0, ptr noundef %1, ptr noundef %2) #0 {
  %4 = alloca ptr, align 8
  %5 = alloca ptr, align 8
  %6 = alloca ptr, align 8
  %7 = alloca ptr, align 8
  %8 = alloca ptr, align 8
  %9 = alloca ptr, align 8
  %10 = alloca [33 x i64], align 16
  %11 = alloca [33 x i8], align 16
  %12 = alloca [33 x i8], align 16
  %13 = alloca i32, align 4
  store ptr %0, ptr %4, align 8
  store ptr %1, ptr %5, align 8
  store ptr %2, ptr %6, align 8
  call void @llvm.lifetime.start.p0(i64 8, ptr %7) #10
  call void @llvm.lifetime.start.p0(i64 8, ptr %8) #10
  call void @llvm.lifetime.start.p0(i64 8, ptr %9) #10
  call void @llvm.lifetime.start.p0(i64 264, ptr %10) #10
  call void @llvm.lifetime.start.p0(i64 33, ptr %11) #10
  call void @llvm.lifetime.start.p0(i64 33, ptr %12) #10
  call void @llvm.lifetime.start.p0(i64 4, ptr %13) #10
  %14 = call ptr @table_open(i32 noundef 1259, i32 noundef 3)
  store ptr %14, ptr %7, align 8
  %15 = load ptr, ptr %4, align 8
  %16 = getelementptr inbounds nuw %struct.RelationData, ptr %15, i32 0, i32 15
  %17 = load i32, ptr %16, align 8
  %18 = call i64 @ObjectIdGetDatum(i32 noundef %17)
  %19 = call ptr @SearchSysCacheCopy(i32 noundef 57, i64 noundef %18, i64 noundef 0, i64 noundef 0, i64 noundef 0)
  store ptr %19, ptr %8, align 8
  %20 = load ptr, ptr %8, align 8
  %21 = icmp ne ptr %20, null
  br i1 %21, label %36, label %22

22:                                               ; preds = %3
  br label %23

23:                                               ; preds = %22
  br i1 true, label %24, label %26

24:                                               ; preds = %23
  %25 = call zeroext i1 @errstart_cold(i32 noundef 21, ptr noundef null) #9
  br i1 %25, label %28, label %33

26:                                               ; preds = %23
  %27 = call zeroext i1 @errstart(i32 noundef 21, ptr noundef null)
  br i1 %27, label %28, label %33

28:                                               ; preds = %26, %24
  %29 = load ptr, ptr %4, align 8
  %30 = getelementptr inbounds nuw %struct.RelationData, ptr %29, i32 0, i32 15
  %31 = load i32, ptr %30, align 8
  %32 = call i32 (ptr, ...) @errmsg_internal(ptr noundef @.str.21, i32 noundef %31)
  call void @errfinish(ptr noundef @.str.1, i32 noundef 3926, ptr noundef @__func__.StorePartitionBound)
  br label %33

33:                                               ; preds = %28, %26, %24
  unreachable

34:                                               ; No predecessors!
  br label %35

35:                                               ; preds = %34
  br label %36

36:                                               ; preds = %35, %3
  %37 = getelementptr inbounds [33 x i64], ptr %10, i64 0, i64 0
  call void @llvm.memset.p0.i64(ptr align 16 %37, i8 0, i64 264, i1 false)
  %38 = getelementptr inbounds [33 x i8], ptr %11, i64 0, i64 0
  call void @llvm.memset.p0.i64(ptr align 16 %38, i8 0, i64 33, i1 false)
  %39 = getelementptr inbounds [33 x i8], ptr %12, i64 0, i64 0
  call void @llvm.memset.p0.i64(ptr align 16 %39, i8 0, i64 33, i1 false)
  %40 = load ptr, ptr %6, align 8
  %41 = call ptr @nodeToString(ptr noundef %40)
  %42 = call ptr @cstring_to_text(ptr noundef %41)
  %43 = call i64 @PointerGetDatum(ptr noundef %42)
  %44 = getelementptr inbounds [33 x i64], ptr %10, i64 0, i64 32
  store i64 %43, ptr %44, align 16
  %45 = getelementptr inbounds [33 x i8], ptr %11, i64 0, i64 32
  store i8 0, ptr %45, align 16
  %46 = getelementptr inbounds [33 x i8], ptr %12, i64 0, i64 32
  store i8 1, ptr %46, align 16
  %47 = load ptr, ptr %8, align 8
  %48 = load ptr, ptr %7, align 8
  %49 = getelementptr inbounds nuw %struct.RelationData, ptr %48, i32 0, i32 14
  %50 = load ptr, ptr %49, align 8
  %51 = getelementptr inbounds [33 x i64], ptr %10, i64 0, i64 0
  %52 = getelementptr inbounds [33 x i8], ptr %11, i64 0, i64 0
  %53 = getelementptr inbounds [33 x i8], ptr %12, i64 0, i64 0
  %54 = call ptr @heap_modify_tuple(ptr noundef %47, ptr noundef %50, ptr noundef %51, ptr noundef %52, ptr noundef %53)
  store ptr %54, ptr %9, align 8
  %55 = load ptr, ptr %9, align 8
  %56 = call ptr @GETSTRUCT(ptr noundef %55)
  %57 = getelementptr inbounds nuw %struct.FormData_pg_class, ptr %56, i32 0, i32 26
  store i8 1, ptr %57, align 1
  %58 = load ptr, ptr %4, align 8
  %59 = getelementptr inbounds nuw %struct.RelationData, ptr %58, i32 0, i32 13
  %60 = load ptr, ptr %59, align 8
  %61 = getelementptr inbounds nuw %struct.FormData_pg_class, ptr %60, i32 0, i32 16
  %62 = load i8, ptr %61, align 1
  %63 = sext i8 %62 to i32
  %64 = icmp eq i32 %63, 114
  br i1 %64, label %65, label %76

65:                                               ; preds = %36
  %66 = load ptr, ptr %4, align 8
  %67 = getelementptr inbounds nuw %struct.RelationData, ptr %66, i32 0, i32 13
  %68 = load ptr, ptr %67, align 8
  %69 = getelementptr inbounds nuw %struct.FormData_pg_class, ptr %68, i32 0, i32 21
  %70 = load i8, ptr %69, align 2, !range !6, !noundef !7
  %71 = trunc i8 %70 to i1
  br i1 %71, label %72, label %76

72:                                               ; preds = %65
  %73 = load ptr, ptr %9, align 8
  %74 = call ptr @GETSTRUCT(ptr noundef %73)
  %75 = getelementptr inbounds nuw %struct.FormData_pg_class, ptr %74, i32 0, i32 21
  store i8 0, ptr %75, align 2
  br label %76

76:                                               ; preds = %72, %65, %36
  %77 = load ptr, ptr %7, align 8
  %78 = load ptr, ptr %9, align 8
  %79 = getelementptr inbounds nuw %struct.HeapTupleData, ptr %78, i32 0, i32 1
  %80 = load ptr, ptr %9, align 8
  call void @CatalogTupleUpdate(ptr noundef %77, ptr noundef %79, ptr noundef %80)
  %81 = load ptr, ptr %9, align 8
  call void @heap_freetuple(ptr noundef %81)
  %82 = load ptr, ptr %7, align 8
  call void @table_close(ptr noundef %82, i32 noundef 3)
  %83 = load ptr, ptr %6, align 8
  %84 = getelementptr inbounds nuw %struct.PartitionBoundSpec, ptr %83, i32 0, i32 2
  %85 = load i8, ptr %84, align 1, !range !6, !noundef !7
  %86 = trunc i8 %85 to i1
  br i1 %86, label %87, label %94

87:                                               ; preds = %76
  %88 = load ptr, ptr %5, align 8
  %89 = getelementptr inbounds nuw %struct.RelationData, ptr %88, i32 0, i32 15
  %90 = load i32, ptr %89, align 8
  %91 = load ptr, ptr %4, align 8
  %92 = getelementptr inbounds nuw %struct.RelationData, ptr %91, i32 0, i32 15
  %93 = load i32, ptr %92, align 8
  call void @update_default_partition_oid(i32 noundef %90, i32 noundef %93)
  br label %94

94:                                               ; preds = %87, %76
  call void @CommandCounterIncrement()
  %95 = load ptr, ptr %5, align 8
  %96 = call ptr @RelationGetPartitionDesc(ptr noundef %95, i1 noundef zeroext true)
  %97 = call i32 @get_default_oid_from_partdesc(ptr noundef %96)
  store i32 %97, ptr %13, align 4
  %98 = load i32, ptr %13, align 4
  %99 = icmp ne i32 %98, 0
  br i1 %99, label %100, label %102

100:                                              ; preds = %94
  %101 = load i32, ptr %13, align 4
  call void @CacheInvalidateRelcacheByRelid(i32 noundef %101)
  br label %102

102:                                              ; preds = %100, %94
  %103 = load ptr, ptr %5, align 8
  call void @CacheInvalidateRelcache(ptr noundef %103)
  call void @llvm.lifetime.end.p0(i64 4, ptr %13) #10
  call void @llvm.lifetime.end.p0(i64 33, ptr %12) #10
  call void @llvm.lifetime.end.p0(i64 33, ptr %11) #10
  call void @llvm.lifetime.end.p0(i64 264, ptr %10) #10
  call void @llvm.lifetime.end.p0(i64 8, ptr %9) #10
  call void @llvm.lifetime.end.p0(i64 8, ptr %8) #10
  call void @llvm.lifetime.end.p0(i64 8, ptr %7) #10
  ret void
}