; Function Attrs: nounwind uwtable
define dso_local void @StorePartitionBound(ptr noundef readonly captures(none) %0, ptr noundef %1, ptr noundef %2) local_unnamed_addr #0 {
  %4 = alloca [33 x i64], align 16
  %5 = alloca [33 x i8], align 16
  %6 = alloca [33 x i8], align 16
  call void @llvm.lifetime.start.p0(i64 264, ptr nonnull %4) #11
  call void @llvm.lifetime.start.p0(i64 33, ptr nonnull %5) #11
  call void @llvm.lifetime.start.p0(i64 33, ptr nonnull %6) #11
  %7 = tail call ptr @table_open(i32 noundef 1259, i32 noundef 3) #11
  %8 = getelementptr inbounds nuw i8, ptr %0, i64 72
  %9 = load i32, ptr %8, align 8
  %10 = zext i32 %9 to i64
  %11 = tail call ptr @SearchSysCacheCopy(i32 noundef 57, i64 noundef %10, i64 noundef 0, i64 noundef 0, i64 noundef 0) #11
  %.not = icmp eq ptr %11, null
  br i1 %.not, label %12, label %16

12:                                               ; preds = %3
  %13 = tail call zeroext i1 @errstart_cold(i32 noundef 21, ptr noundef null) #10
  tail call void @llvm.assume(i1 %13)
  %14 = load i32, ptr %8, align 8
  %15 = tail call i32 (ptr, ...) @errmsg_internal(ptr noundef nonnull @.str.21, i32 noundef %14) #11
  tail call void @errfinish(ptr noundef nonnull @.str.1, i32 noundef 3926, ptr noundef nonnull @__func__.StorePartitionBound) #11
  unreachable

16:                                               ; preds = %3
  call void @llvm.memset.p0.i64(ptr noundef nonnull align 16 dereferenceable(264) %4, i8 0, i64 256, i1 false)
  call void @llvm.memset.p0.i64(ptr noundef nonnull align 16 dereferenceable(33) %5, i8 0, i64 32, i1 false)
  call void @llvm.memset.p0.i64(ptr noundef nonnull align 16 dereferenceable(33) %6, i8 0, i64 32, i1 false)
  %17 = tail call ptr @nodeToString(ptr noundef %2) #11
  %18 = tail call ptr @cstring_to_text(ptr noundef %17) #11
  %19 = ptrtoint ptr %18 to i64
  %20 = getelementptr inbounds nuw i8, ptr %4, i64 256
  store i64 %19, ptr %20, align 16
  %21 = getelementptr inbounds nuw i8, ptr %5, i64 32
  store i8 0, ptr %21, align 16
  %22 = getelementptr inbounds nuw i8, ptr %6, i64 32
  store i8 1, ptr %22, align 16
  %23 = getelementptr inbounds nuw i8, ptr %7, i64 64
  %24 = load ptr, ptr %23, align 8
  %25 = call ptr @heap_modify_tuple(ptr noundef nonnull %11, ptr noundef %24, ptr noundef nonnull %4, ptr noundef nonnull %5, ptr noundef nonnull %6) #11
  %26 = getelementptr i8, ptr %25, i64 16
  %.val23 = load ptr, ptr %26, align 8
  %27 = getelementptr inbounds nuw i8, ptr %.val23, i64 22
  %28 = load i8, ptr %27, align 2
  %29 = zext i8 %28 to i64
  %30 = getelementptr inbounds nuw i8, ptr %.val23, i64 %29
  %31 = getelementptr inbounds nuw i8, ptr %30, i64 127
  store i8 1, ptr %31, align 1
  %32 = getelementptr inbounds nuw i8, ptr %0, i64 56
  %33 = load ptr, ptr %32, align 8
  %34 = getelementptr inbounds nuw i8, ptr %33, i64 115
  %35 = load i8, ptr %34, align 1
  %36 = icmp eq i8 %35, 114
  br i1 %36, label %37, label %47

37:                                               ; preds = %16
  %38 = getelementptr inbounds nuw i8, ptr %33, i64 122
  %39 = load i8, ptr %38, align 2, !range !10, !noundef !11
  %40 = trunc nuw i8 %39 to i1
  br i1 %40, label %41, label %47

41:                                               ; preds = %37
  %.val = load ptr, ptr %26, align 8
  %42 = getelementptr inbounds nuw i8, ptr %.val, i64 22
  %43 = load i8, ptr %42, align 2
  %44 = zext i8 %43 to i64
  %45 = getelementptr inbounds nuw i8, ptr %.val, i64 %44
  %46 = getelementptr inbounds nuw i8, ptr %45, i64 122
  store i8 0, ptr %46, align 2
  br label %47

47:                                               ; preds = %41, %37, %16
  %48 = getelementptr inbounds nuw i8, ptr %25, i64 4
  call void @CatalogTupleUpdate(ptr noundef nonnull %7, ptr noundef nonnull %48, ptr noundef nonnull %25) #11
  call void @heap_freetuple(ptr noundef nonnull %25) #11
  call void @table_close(ptr noundef nonnull %7, i32 noundef 3) #11
  %49 = getelementptr inbounds nuw i8, ptr %2, i64 5
  %50 = load i8, ptr %49, align 1, !range !10, !noundef !11
  %51 = trunc nuw i8 %50 to i1
  br i1 %51, label %52, label %56

52:                                               ; preds = %47
  %53 = getelementptr inbounds nuw i8, ptr %1, i64 72
  %54 = load i32, ptr %53, align 8
  %55 = load i32, ptr %8, align 8
  call void @update_default_partition_oid(i32 noundef %54, i32 noundef %55) #11
  br label %56

56:                                               ; preds = %52, %47
  call void @CommandCounterIncrement() #11
  %57 = call ptr @RelationGetPartitionDesc(ptr noundef %1, i1 noundef zeroext true) #11
  %58 = call i32 @get_default_oid_from_partdesc(ptr noundef %57) #11
  %.not22 = icmp eq i32 %58, 0
  br i1 %.not22, label %60, label %59

59:                                               ; preds = %56
  call void @CacheInvalidateRelcacheByRelid(i32 noundef %58) #11
  br label %60

60:                                               ; preds = %59, %56
  call void @CacheInvalidateRelcache(ptr noundef %1) #11
  call void @llvm.lifetime.end.p0(i64 33, ptr nonnull %6) #11
  call void @llvm.lifetime.end.p0(i64 33, ptr nonnull %5) #11
  call void @llvm.lifetime.end.p0(i64 264, ptr nonnull %4) #11
  ret void
}